target datalayout = "e-m:e-p270:32:32-p271:32:32-p272:64:64-i64:64-i128:128-f80:128-n8:16:32:64-S128"
target triple = "x86_64-pc-linux-gnu"

%struct.ewah_iterator = type { ptr, i64, i64, i64, i64, i64, i64, i32 }

; Function Attrs: inlinehint nounwind uwtable
define internal i32 @ewah_bit_popcount64(i64 noundef %0) #3 {
  %2 = alloca i64, align 8
  store i64 %0, ptr %2, align 8, !tbaa !4
  %3 = load i64, ptr %2, align 8, !tbaa !4
  %4 = and i64 %3, 6148914691236517205
  %5 = load i64, ptr %2, align 8, !tbaa !4
  %6 = lshr i64 %5, 1
  %7 = and i64 %6, 6148914691236517205
  %8 = add i64 %4, %7
  store i64 %8, ptr %2, align 8, !tbaa !4
  %9 = load i64, ptr %2, align 8, !tbaa !4
  %10 = and i64 %9, 3689348814741910323
  %11 = load i64, ptr %2, align 8, !tbaa !4
  %12 = lshr i64 %11, 2
  %13 = and i64 %12, 3689348814741910323
  %14 = add i64 %10, %13
  store i64 %14, ptr %2, align 8, !tbaa !4
  %15 = load i64, ptr %2, align 8, !tbaa !4
  %16 = and i64 %15, 1085102592571150095
  %17 = load i64, ptr %2, align 8, !tbaa !4
  %18 = lshr i64 %17, 4
  %19 = and i64 %18, 1085102592571150095
  %20 = add i64 %16, %19
  store i64 %20, ptr %2, align 8, !tbaa !4
  %21 = load i64, ptr %2, align 8, !tbaa !4
  %22 = mul i64 %21, 72340172838076673
  %23 = lshr i64 %22, 56
  %24 = trunc i64 %23 to i32
  ret i32 %24
}

; Function Attrs: nounwind uwtable
define dso_local i64 @ewah_bitmap_popcount(ptr noundef %0) #0 {
  %2 = alloca ptr, align 8
  %3 = alloca %struct.ewah_iterator, align 8
  %4 = alloca i64, align 8
  %5 = alloca i64, align 8
  store ptr %0, ptr %2, align 8, !tbaa !16
  call void @llvm.lifetime.start.p0(i64 64, ptr %3) #8
  call void @llvm.lifetime.start.p0(i64 8, ptr %4) #8
  call void @llvm.lifetime.start.p0(i64 8, ptr %5) #8
  store i64 0, ptr %5, align 8, !tbaa !4
  %6 = load ptr, ptr %2, align 8, !tbaa !16
  call void @ewah_iterator_init(ptr noundef %3, ptr noundef %6)
  br label %7

7:                                                ; preds = %10, %1
  %8 = call i32 @ewah_iterator_next(ptr noundef %4, ptr noundef %3)
  %9 = icmp ne i32 %8, 0
  br i1 %9, label %10, label %16

10:                                               ; preds = %7
  %11 = load i64, ptr %4, align 8, !tbaa !4
  %12 = call i32 @ewah_bit_popcount64(i64 noundef %11)
  %13 = zext i32 %12 to i64
  %14 = load i64, ptr %5, align 8, !tbaa !4
  %15 = add i64 %14, %13
  store i64 %15, ptr %5, align 8, !tbaa !4
  br label %7, !llvm.loop !29

16:                                               ; preds = %7
  %17 = load i64, ptr %5, align 8, !tbaa !4
  call void @llvm.lifetime.end.p0(i64 8, ptr %5) #8
  call void @llvm.lifetime.end.p0(i64 8, ptr %4) #8
  call void @llvm.lifetime.end.p0(i64 64, ptr %3) #8
  ret i64 %17
}