; Function Attrs: nounwind uwtable
define dso_local i64 @ewah_bitmap_popcount(ptr noundef %0) local_unnamed_addr #0 {
  %2 = alloca %struct.ewah_iterator, align 8
  %3 = alloca i64, align 8
  call void @llvm.lifetime.start.p0(i64 64, ptr nonnull %2) #13
  call void @llvm.lifetime.start.p0(i64 8, ptr nonnull %3) #13
  call void @ewah_iterator_init(ptr noundef nonnull %2, ptr noundef %0) #13
  %4 = call i32 @ewah_iterator_next(ptr noundef nonnull %3, ptr noundef nonnull %2) #13
  %.not2 = icmp eq i32 %4, 0
  br i1 %.not2, label %._crit_edge, label %.lr.ph

.lr.ph:                                           ; preds = %1, %.lr.ph
  %.03 = phi i64 [ %20, %.lr.ph ], [ 0, %1 ]
  %5 = load i64, ptr %3, align 8, !tbaa !12
  %6 = and i64 %5, 6148914691236517205
  %7 = lshr i64 %5, 1
  %8 = and i64 %7, 6148914691236517205
  %9 = add nuw i64 %8, %6
  %10 = and i64 %9, 3689348814741910323
  %11 = lshr i64 %9, 2
  %12 = and i64 %11, 3689348814741910323
  %13 = add nuw nsw i64 %12, %10
  %14 = and i64 %13, 506381209866536711
  %15 = lshr i64 %13, 4
  %16 = and i64 %15, 506381209866536711
  %17 = add nuw nsw i64 %16, %14
  %18 = mul i64 %17, 72340172838076673
  %19 = lshr i64 %18, 56
  %20 = add i64 %19, %.03
  %21 = call i32 @ewah_iterator_next(ptr noundef nonnull %3, ptr noundef nonnull %2) #13
  %.not = icmp eq i32 %21, 0
  br i1 %.not, label %._crit_edge, label %.lr.ph, !llvm.loop !24

._crit_edge:                                      ; preds = %.lr.ph, %1
  %.0.lcssa = phi i64 [ 0, %1 ], [ %20, %.lr.ph ]
  call void @llvm.lifetime.end.p0(i64 8, ptr nonnull %3) #13
  call void @llvm.lifetime.end.p0(i64 64, ptr nonnull %2) #13
  ret i64 %.0.lcssa
}